; Function Attrs: nounwind uwtable
define internal void @fn_alias_fl(ptr noundef %0, i32 noundef %1, ptr noundef %2, ptr noundef %3) #0 {
  %5 = alloca %struct.strbuf, align 8
  call void @llvm.lifetime.start.p0(i64 24, ptr nonnull %5) #7
  call void @llvm.memcpy.p0.p0.i64(ptr noundef nonnull align 8 dereferenceable(24) %5, ptr noundef nonnull align 8 dereferenceable(24) @__const.fn_counter.buf_payload, i64 24, i1 false)
  call void (ptr, ptr, ...) @strbuf_addf(ptr noundef nonnull %5, ptr noundef nonnull @.str.30, ptr noundef %2) #7
  call void @sq_append_quote_argv_pretty(ptr noundef nonnull %5, ptr noundef %3) #7
  %6 = load i64, ptr %5, align 8, !tbaa !11
  %.not.i.i = icmp eq i64 %6, 0
  br i1 %.not.i.i, label %strbuf_avail.exit.thread.i, label %strbuf_avail.exit.i

strbuf_avail.exit.i:                              ; preds = %4
  %7 = getelementptr inbounds nuw i8, ptr %5, i64 8
  %8 = load i64, ptr %7, align 8, !tbaa !15
  %.neg.i = add i64 %8, 1
  %.not.i = icmp eq i64 %6, %.neg.i
  br i1 %.not.i, label %strbuf_avail.exit.thread.i, label %strbuf_addch.exit

strbuf_avail.exit.thread.i:                       ; preds = %strbuf_avail.exit.i, %4
  call void @strbuf_grow(ptr noundef nonnull %5, i64 noundef 1) #7
  %.phi.trans.insert.i = getelementptr inbounds nuw i8, ptr %5, i64 8
  %.pre.i = load i64, ptr %.phi.trans.insert.i, align 8, !tbaa !15
  %.pre7.i = add i64 %.pre.i, 1
  br label %strbuf_addch.exit

strbuf_addch.exit:                                ; preds = %strbuf_avail.exit.i, %strbuf_avail.exit.thread.i
  %.pre-phi.i = phi i64 [ %.pre7.i, %strbuf_avail.exit.thread.i ], [ %.neg.i, %strbuf_avail.exit.i ]
  %9 = phi i64 [ %.pre.i, %strbuf_avail.exit.thread.i ], [ %8, %strbuf_avail.exit.i ]
  %10 = getelementptr inbounds nuw i8, ptr %5, i64 16
  %11 = load ptr, ptr %10, align 8, !tbaa !16
  %12 = getelementptr inbounds nuw i8, ptr %5, i64 8
  store i64 %.pre-phi.i, ptr %12, align 8, !tbaa !15
  %13 = getelementptr inbounds nuw i8, ptr %11, i64 %9
  store i8 93, ptr %13, align 1, !tbaa !4
  %14 = load ptr, ptr %10, align 8, !tbaa !16
  %15 = load i64, ptr %12, align 8, !tbaa !15
  %16 = getelementptr inbounds nuw i8, ptr %14, i64 %15
  store i8 0, ptr %16, align 1, !tbaa !4
  call fastcc void @perf_io_write_fl(ptr noundef %0, i32 noundef %1, ptr noundef nonnull @.str.29, ptr noundef null, ptr noundef null, ptr noundef null, ptr noundef null, ptr noundef %5)
  call void @strbuf_release(ptr noundef nonnull %5) #7
  call void @llvm.lifetime.end.p0(i64 24, ptr nonnull %5) #7
  ret void
}